ccopy_reg
_reconstructor
p1
(cshowdown_rl.converter
Converter
p2
c__builtin__
object
p3
NtRp4
(dp5
S'move_backward_mapping'
p6
(lp7
VFoul Play
p8
aVKnock Off
p9
aVScald
p10
aVRecover
p11
aVWish
p12
aVProtect
p13
aVFake Out
p14
aVWill-O-Wisp
p15
aVRoost
p16
aVBrave Bird
p17
aVHeal Bell
p18
aVTaunt
p19
aVBulk Up
p20
aVEarthquake
p21
aVToxic
p22
aVPsyshock
p23
aVSoft-Boiled
p24
aVSwords Dance
p25
aVAcrobatics
p26
aVPower Whip
p27
aVStealth Rock
p28
aVDark Pulse
p29
aVThunder Wave
p30
aVFire Punch
p31
aVDefog
p32
aVFlamethrower
p33
aVSecret Sword
p34
aVHyper Voice
p35
aVCalm Mind
p36
aVSlack Off
p37
aVSeismic Toss
p38
aVReversal
p39
aVSubstitute
p40
aVStone Edge
p41
aVDiamond Storm
p42
aVPursuit
p43
aVMeteor Mash
p44
aVMoonblast
p45
aVIce Beam
p46
aVU-turn
p47
aVV-create
p48
aVPlay Rough
p49
aVEarth Power
p50
aVFusion Bolt
p51
aVBolt Strike
p52
aVOutrage
p53
aVShadow Sneak
p54
aVZen Headbutt
p55
aVIce Punch
p56
aVDragon Dance
p57
aVDragon Claw
p58
aVCotton Guard
p59
aVSecret Power
p60
aVRoar
p61
aVRest
p62
aVHidden Power
p63
aVTrick
p64
aVSleep Powder
p65
aVLeech Seed
p66
aVFlare Blitz
p67
aVThunderbolt
p68
aVCurse
p69
aVFire Blast
p70
aVSludge Wave
p71
aVHurricane
p72
aVGunk Shot
p73
aVRock Slide
p74
aVFiery Dance
p75
aVBlizzard
p76
aVFlash Cannon
p77
aVGiga Drain
p78
aVDragon Tail
p79
aVSpikes
p80
aVConfuse Ray
p81
aVWhirlwind
p82
aVCrunch
p83
aVHydro Pump
p84
aVPain Split
p85
aVIron Head
p86
aVDraco Meteor
p87
aVAromatherapy
p88
aVSludge Bomb
p89
aVToxic Spikes
p90
aVSkill Swap
p91
aVTail Glow
p92
aVRain Dance
p93
aVLava Plume
p94
aVLeaf Storm
p95
aVNasty Plot
p96
aVAir Slash
p97
aVDragon Pulse
p98
aVVolt Switch
p99
aVFrustration
p100
aVHigh Jump Kick
p101
aVOverheat
p102
aVShell Smash
p103
aVGrass Knot
p104
aVClose Combat
p105
aVSolar Beam
p106
aVFocus Blast
p107
aVBullet Seed
p108
aVEnergy Ball
p109
aVAqua Jet
p110
aVBelly Drum
p111
aVGyro Ball
p112
aVRapid Spin
p113
aVMach Punch
p114
aVWaterfall
p115
aVQuiver Dance
p116
aVBug Buzz
p117
aVHyperspace Fury
p118
aVHeart Stamp
p119
aVPower-Up Punch
p120
aVReturn
p121
aVSpore
p122
aVShadow Ball
p123
aVRock Tomb
p124
aVPsychic
p125
aVEncore
p126
aVDrain Punch
p127
aVStruggle
p128
aVCrabhammer
p129
aVFocus Punch
p130
aVPsycho Cut
p131
aVSucker Punch
p132
aVAgility
p133
aVDazzling Gleam
p134
aVDestiny Bond
p135
aVMagma Storm
p136
aVBody Slam
p137
aVAncient Power
p138
aVFuture Sight
p139
aVAvalanche
p140
aVHeat Wave
p141
aVQuick Attack
p142
aVRock Polish
p143
aVRock Blast
p144
aVInfestation
p145
aVSpiky Shield
p146
aVClear Smog
p147
aVFacade
p148
aVBullet Punch
p149
aVIce Shard
p150
aVExtreme Speed
p151
aVX-Scissor
p152
aVPoison Jab
p153
aVSurf
p154
aVSleep Talk
p155
aVHex
p156
aVHaze
p157
aVBaton Pass
p158
aVMirror Coat
p159
aVSuperpower
p160
aVIcicle Crash
p161
aVBug Bite
p162
aVSnarl
p163
aVSacred Sword
p164
aVSacred Fire
p165
aVThunder Punch
p166
aVNight Shade
p167
aVCircle Throw
p168
aVDouble-Edge
p169
aVSticky Web
p170
aVReflect Type
p171
aVThunder
p172
aVAqua Tail
p173
aVMilk Drink
p174
aVAerial Ace
p175
aVSynthesis
p176
aVCounter
p177
aVHone Claws
p178
aVCosmic Power
p179
aVStored Power
p180
aVSeed Bomb
p181
aVIce Fang
p182
aVMoonlight
p183
aVRelic Song
p184
aVCharge Beam
p185
aVReflect
p186
aVLight Screen
p187
aVSky Attack
p188
aVPin Missile
p189
aVWork Up
p190
aVRefresh
p191
aVIcicle Spear
p192
aVBlue Flare
p193
aVStun Spore
p194
aVMagnet Rise
p195
aVDragon Rush
p196
aVShift Gear
p197
aVWild Charge
p198
aVSmack Down
p199
aVDoom Desire
p200
aVDischarge
p201
aVLow Kick
p202
aVHammer Arm
p203
aVTrick Room
p204
aVPerish Song
p205
aVHead Smash
p206
aVIcy Wind
p207
aVSeed Flare
p208
aVWater Pulse
p209
aVForce Palm
p210
aVFire Fang
p211
aVNatural Gift
p212
aVSteam Eruption
p213
aVAura Sphere
p214
aVExplosion
p215
aVLeaf Blade
p216
aVBrick Break
p217
aVGravity
p218
aVMegahorn
p219
aVGlare
p220
aVBounce
p221
aVExtrasensory
p222
aVWing Attack
p223
aVEndeavor
p224
aVVacuum Wave
p225
aVGlaciate
p226
aVFocus Energy
p227
aVYawn
p228
aVEndure
p229
aVPsycho Shift
p230
aVFlame Charge
p231
aVIron Defense
p232
aVGeomancy
p233
aVDrill Peck
p234
aVHeavy Slam
p235
aVMorning Sun
p236
aVVolt Tackle
p237
aVDynamic Punch
p238
aVKing's Shield
p239
aVGrowth
p240
aVTri Attack
p241
aVDisable
p242
aVSwagger
p243
aVBlaze Kick
p244
aVStockpile
p245
aVBulldoze
p246
aVAcid Spray
p247
aVHypnosis
p248
aVRetaliate
p249
aVFollow Me
p250
aVFeint
p251
aVIron Tail
p252
aVHealing Wish
p253
aVFairy Lock
p254
aVTailwind
p255
aVCoil
p256
aVSwitcheroo
p257
aVWood Hammer
p258
aVFly
p259
aVMagic Room
p260
aVSunny Day
p261
aVDetect
p262
aVCross Chop
p263
aVTickle
p264
aVNuzzle
p265
aVFreeze-Dry
p266
aVThunder Fang
p267
aVShadow Claw
p268
aVSoftboiled
p269
aVHeal Block
p270
aVRazor Shell
p271
aVSuper Fang
p272
aVRock Climb
p273
aVPower Split
p274
aVFlail
p275
aVPetal Dance
p276
aVBelch
p277
aVDrill Run
p278
aVDark Void
p279
aVPsycho Boost
p280
aVEruption
p281
aVWide Guard
p282
aVIngrain
p283
aVAutotomize
p284
aVMagic Coat
p285
aVMean Look
p286
aVAcid Armor
p287
aVNight Daze
p288
aVIncinerate
p289
aVNight Slash
p290
aVShadow Punch
p291
aVLow Sweep
p292
aVSignal Beam
p293
aVBlock
p294
aVSteel Wing
p295
aVJump Kick
p296
aVHeadbutt
p297
aVFrost Breath
p298
aVMega Punch
p299
aVStrength
p300
aVAttract
p301
aVPhantom Force
p302
aVWhirlpool
p303
aVGiga Impact
p304
aVMetal Burst
p305
aVWorry Seed
p306
aVDual Chop
p307
aVStealth Roc
p308
aVBeat Up
p309
aVHorn Leech
p310
aVSwift
p311
aVTransform
p312
aVPower Swap
p313
aVWeather Ball
p314
aVPoison Fang
p315
aVFire Spin
p316
aVFlame Wheel
p317
aVGuard Split
p318
aVMinimize
p319
aVPsych Up
p320
aVMisty Terrain
p321
aVStomp
p322
aVMuddy Water
p323
aVLast Resort
p324
aVEchoed Voice
p325
aVFlash
p326
aVSoak
p327
aVHeal Pulse
p328
aVSky Drop
p329
aVSnatch
p330
aVHeart Swap
p331
aVGear Grind
p332
aVBite
p333
aVFling
p334
aVTorment
p335
aVHi Jump Kick
p336
aVDraining Kiss
p337
aVPrecipice Blades
p338
aVConfusion
p339
aVCut
p340
aVUproar
p341
aVRazor Leaf
p342
aVBaby-Doll Eyes
p343
aVAcupressure
p344
aVTopsy-Turvy
p345
aVSmokescreen
p346
aVThunder Shock
p347
aVTelekinesis
p348
aVBarrage
p349
aVChip Away
p350
aVKarate Chop
p351
aVHydro Cannon
p352
aVSonic Boom
p353
aVFusion Flare
p354
aVSpider Web
p355
aVLovely Kiss
p356
aVArm Thrust
p357
aVAttack Order
p358
aVHowl
p359
aVDefend Order
p360
aVVenom Drench
p361
aVDouble Hit
p362
aVSmog
p363
aVRound
p364
aVAssurance
p365
aVFury Cutter
p366
aVMud Sport
p367
aVFlying Press
p368
aVBrine
p369
aVBarrier
p370
aVSpacial Rend
p371
aVFeather Dance
p372
aVPower Gem
p373
aVGrudge
p374
aVHail
p375
aVWrap
p376
aVThrash
p377
aVBoomburst
p378
aVFlower Shield
p379
aVEmbargo
p380
aVFury Attack
p381
aVRoar of Time
p382
aVPsybeam
p383
aVSharpen
p384
aVHead Charge
p385
aVLock-On
p386
aVShadow Force
p387
aVScratch
p388
aVTail Whip
p389
aVMud-Slap
p390
aVWater Pledge
p391
aVTackle
p392
aVSky Uppercut
p393
aVConfide
p394
aVSand Tomb
p395
aVSafeguard
p396
aVHyper Beam
p397
aVForesight
p398
aVVenoshock
p399
aVEerie Impulse
p400
aVDragon Breath
p401
aVCovet
p402
aVSilver Wind
p403
aVPayback
p404
aVAir Cutter
p405
aVFinal Gambit
p406
aVZap Cannon
p407
aVMetal Sound
p408
aVSludge
p409
aVFreeze Shock
p410
aVWater Spout
p411
aVAmnesia
p412
aVSnore
p413
aVFire Pledge
p414
aVHyperspace Hole
p415
aVParting Shot
p416
aVChatter
p417
aVCharge
p418
aVScreech
p419
aVTail Slap
p420
aVStruggle Bug
p421
aVPunishment
p422
aVPsywave
p423
aVCharm
p424
aVHydro P
p425
aVFell Stinger
p426
aVRock Smash
p427
aVMimic
p428
aVSelf-Destruct
p429
aVRollout
p430
aVSheer Cold
p431
aVPetal Blizzard
p432
aVMemento
p433
aVSearing Shot
p434
aVDig
p435
aVDouble Team
p436
aVPound
p437
aVDive
p438
aVMe First
p439
aVFissure
p440
aVVine Whip
p441
aVCross Poison
p442
aVBubble
p443
aVSandstorm
p444
aVDouble Kick
p445
aVLight of Ruin
p446
aVThief
p447
aVGrass Whistle
p448
aVWake-Up Slap
p449
aVLuster Purge
p450
aVWater Shuriken
p451
aVEntrainment
p452
aVQuick Guard
p453
aVGrass Pledge
p454
aVMagnetic Flux
p455
aVImprison
p456
aVMat Block
p457
aVElectro Ball
p458
aVMagnitude
p459
aVLick
p460
aVGuard Swap
p461
aVPower Trick
p462
aVSpit Up
p463
aVCelebrate
p464
aVDream Eater
p465
aVAeroblast
p466
aVRecycle
p467
aVDragon Rage
p468
aVDefense Curl
p469
aVRole Play
p470
aVAqua Ring
p471
aVMega Drain
p472
aVSplash
p473
aVTwineedle
p474
aVMud Shot
p475
aVEgg Bomb
p476
aVFlatter
p477
aVForest's Curse
p478
aVHorn Drill
p479
aVFury Swipes
p480
aVGrowl
p481
aVTeleport
p482
aVMega Kick
p483
aVBind
p484
aVTeeter Dance
p485
aVTrump Card
p486
aVHarden
p487
aVMagnet Bomb
p488
aVMud Bomb
p489
aVCamouflage
p490
aVWithdraw
p491
aVSpark
p492
aVElectrify
p493
aVCaptivate
p494
aVBide
p495
aVMetal Claw
p496
aVStorm Throw
p497
aVGrassy Terrain
p498
aVInferno
p499
aVSweet Kiss
p500
aVPresent
p501
aVMystical Fire
p502
aVElectric Terrain
p503
aVIce Ball
p504
aVSpike Cannon
p505
aVTechno Blast
p506
aVSynchronoise
p507
aVOminous Wind
p508
aVOctazooka
p509
aVElectroweb
p510
aVDragon Ascent
p511
aVBonemerang
p512
aVTopsy-turvy
p513
aVTrick-or-Treat
p514
aVWater Sport
p515
aVSteamroller
p516
aVHeal Order
p517
aVRevenge
p518
aVWring Out
p519
aVConstrict
p520
aVDragonBreath
p521
aVCrush Claw
p522
aVRage Powder
p523
aVScary Face
p524
aVLucky Chant
p525
aVSing
p526
aVPaleo Wave
p527
aVShadow Strike
p528
aVMagical Leaf
p529
aVBlast Burn
p530
aVNightmare
p531
aVGastro Acid
p532
aVOrigin Pulse
p533
aVBone Rush
p534
aVFlame Burst
p535
aVHelping Hand
p536
aVPsystrike
p537
aVAbsorb
p538
aVSupersonic
p539
aVDouble Slap
p540
aVS
aVParabolic Charge
p541
aVShock Wave
p542
aVQuash
p543
aVSlash
p544
asS'move_index'
p545
I538
sS'poke_backward_mapping'
p546
(lp547
VSableye
p548
aVDugtrio
p549
aVShedinja
p550
aVVaporeon
p551
aVTalonflame
p552
aVMew
p553
aVGastrodon
p554
aVGliscor
p555
aVFerrothorn
p556
aVStarmie
p557
aVSableye-Mega
p558
aVExcadrill
p559
aVHydreigon
p560
aVAmoonguss
p561
aVCharizard
p562
aVCharizard-Mega-X
p563
aVAltaria
p564
aVSkarmory
p565
aVSlowbro
p566
aVBisharp
p567
aVKeldeo-Resolute
p568
aVChansey
p569
aVAltaria-Mega
p570
aVHoopa-Unbound
p571
aVDiancie
p572
aVMetagross
p573
aVKeldeo
p574
aVLatios
p575
aVLandorus-Therian
p576
aVDiancie-Mega
p577
aVKyurem-Black
p578
aVZygarde
p579
aVAzumarill
p580
aVVictini
p581
aVTerrakion
p582
aVMetagross-Mega
p583
aVChandelure
p584
aVFurfrou
p585
aVScizor
p586
aVClefable
p587
aVSnorlax
p588
aVExeggutor
p589
aVPinsir
p590
aVMachamp
p591
aVElectabuzz
p592
aVRegirock
p593
aVTentacruel
p594
aVManectric
p595
aVTornadus-Therian
p596
aVInfernape
p597
aVVolcarona
p598
aVManectric-Mega
p599
aVMagnezone
p600
aVAbomasnow
p601
aVAbomasnow-Mega
p602
aVJirachi
p603
aVSalamence
p604
aVHeatran
p605
aVTyranitar
p606
aVRotom-Wash
p607
aVMedicham
p608
aVGarchomp
p609
aVLatias
p610
aVHippowdon
p611
aVMedicham-Mega
p612
aVTangrowth
p613
aVQuagsire
p614
aVAlakazam
p615
aVWeavile
p616
aVMagneton
p617
aVWhimsicott
p618
aVScizor-Mega
p619
aVAzelf
p620
aVDragonite
p621
aVManaphy
p622
aVPinsir-Mega
p623
aVSerperior
p624
aVTogekiss
p625
aVGyarados
p626
aVGyarados-Mega
p627
aVLopunny
p628
aVBarbaracle
p629
aVRotom-Heat
p630
aVLopunny-Mega
p631
aVCelebi
p632
aVAmpharos
p633
aVAmpharos-Mega
p634
aVVenusaur
p635
aVVenusaur-Mega
p636
aVSlowking
p637
aVBreloom
p638
aVCharizard-Mega-Y
p639
aVGarchomp-Mega
p640
aVHawlucha
p641
aVGardevoir
p642
aVMilotic
p643
aVGardevoir-Mega
p644
aVSuicune
p645
aVBlissey
p646
aVSylveon
p647
aVConkeldurr
p648
aVAlakazam-Mega
p649
aVMandibuzz
p650
aVMeloetta
p651
aVCrawdaunt
p652
aVThundurus
p653
aVBanette
p654
aVBanette-Mega
p655
aVDiggersby
p656
aVUmbreon
p657
aVAlomomola
p658
aVGengar
p659
aVGallade
p660
aVGallade-Mega
p661
aVRhyperior
p662
aVDragalge
p663
aVRaikou
p664
aVCloyster
p665
aVShuckle
p666
aVChesnaught
p667
aVGoodra
p668
aVLucario
p669
aVBeedrill
p670
aVGolem
p671
aVLinoone
p672
aVBeedrill-Mega
p673
aVSeismitoad
p674
aVSceptile
p675
aVKrookodile
p676
aVFeraligatr
p677
aVKlefki
p678
aVSwampert
p679
aVGothitelle
p680
aVSwampert-Mega
p681
aVDitto
p682
aVBlastoise
p683
aVCobalion
p684
aVDoublade
p685
aVPorygon2
p686
aVLatios-Mega
p687
aVAerodactyl
p688
aVEntei
p689
aVSlowbro-Mega
p690
aVRegice
p691
aVDelphox
p692
aVPoliwrath
p693
aVDusknoir
p694
aVSlaking
p695
aVNoctowl
p696
aVPiloswine
p697
aVNidoking
p698
aVZoroark
p699
aVStaraptor
p700
aVZapdos
p701
aVPidgeot
p702
aVPidgeot-Mega
p703
aVJellicent
p704
aVGalvantula
p705
aVEmpoleon
p706
aVMamoswine
p707
aVTyranitar-Mega
p708
aVTornadus
p709
aVKingdra
p710
aVKabutops
p711
aVPolitoed
p712
aVCrobat
p713
aVMiltank
p714
aVJolteon
p715
aVAerodactyl-Mega
p716
aVDonphan
p717
aVForretress
p718
aVVenipede
p719
aVEspeon
p720
aVHeracross
p721
aVHeracross-Mega
p722
aVReuniclus
p723
aVNidoqueen
p724
aVLatias-Mega
p725
aVAccelgor
p726
aVBraviary
p727
aVXatu
p728
aVEmboar
p729
aVFletchinder
p730
aVVivillon
p731
aVFlygon
p732
aVDurant
p733
aVGranbull
p734
aVKlinklang
p735
aVHoundoom
p736
aVPrimeape
p737
aVMesprit
p738
aVHaxorus
p739
aVNinetales
p740
aVScolipede
p741
aVYanmega
p742
aVSharpedo
p743
aVTorterra
p744
aVSharpedo-Mega
p745
aVCofagrigus
p746
aVUxie
p747
aVSlurpuff
p748
aVHonchkrow
p749
aVTyrantrum
p750
aVCorsola
p751
aVRotom-Fan
p752
aVBellossom
p753
aVShaymin
p754
aVGourgeist-*
p755
aVBlastoise-Mega
p756
aVNinjask
p757
aVRampardos
p758
aVDarmanitan
p759
aVKyurem
p760
aVSceptile-Mega
p761
aVPikachu
p762
aVStunfisk
p763
aVRoserade
p764
aVAvalugg
p765
aVVolcanion
p766
aVThundurus-Therian
p767
aVClaydol
p768
aVMienshao
p769
aVVileplume
p770
aVArcheops
p771
aVHitmontop
p772
aVArcanine
p773
aVMantine
p774
aVBronzong
p775
aVHoundoom-Mega
p776
aVToxicroak
p777
aVAmbipom
p778
aVSigilyph
p779
aVAron
p780
aVAbsol
p781
aVAbsol-Mega
p782
aVPangoro
p783
aVAggron
p784
aVCresselia
p785
aVLandorus
p786
aVCottonee
p787
aVSmeargle
p788
aVNoivern
p789
aVGreninja
p790
aVAggron-Mega
p791
aVProbopass
p792
aVLapras
p793
aVWobbuffet
p794
aVStoutland
p795
aVOmastar
p796
aVMawile
p797
aVAegislash
p798
aVMawile-Mega
p799
aVBeheeyem
p800
aVDeoxys-Defense
p801
aVRegigigas
p802
aVDeoxys-Speed
p803
aVPorygon-Z
p804
aVGligar
p805
aVFlorges
p806
aVMagmortar
p807
aVCradily
p808
aVTrevenant
p809
aVArmaldo
p810
aVBouffalant
p811
aVGenesect
p812
aVFlareon
p813
aVHitmonlee
p814
aVElectrode
p815
aVCacturne
p816
aVLanturn
p817
aVCamerupt
p818
aVCamerupt-Mega
p819
aVFroslass
p820
aVHoopa
p821
aVMoltres
p822
aVWailord
p823
aVDragonair
p824
aVDusclops
p825
aVExploud
p826
aVLudicolo
p827
aVLuxray
p828
aVRegisteel
p829
aVDruddigon
p830
aVShiftry
p831
aVSpiritomb
p832
aVGigalith
p833
aVZangoose
p834
aVLeafeon
p835
aVHeliolisk
p836
aVSalamence-Mega
p837
aVKangaskhan
p838
aVEelektross
p839
aVFloatzel
p840
aVElectivire
p841
aVBlaziken
p842
aVPachirisu
p843
aVVullaby
p844
aVScrafty
p845
aVGiratina-Origin
p846
aVSimisage
p847
aVDodrio
p848
aVKangaskhan-Mega
p849
aVTauros
p850
aVDrapion
p851
aVLilligant
p852
aVWeezing
p853
aVEscavalier
p854
aVHariyama
p855
aVCinccino
p856
aVAromatisse
p857
aVMalamar
p858
aVMeowstic
p859
aVSwoobat
p860
aVArticuno
p861
aVVenomoth
p862
aVRotom-Mow
p863
aVClamperl
p864
aVGorebyss
p865
aVGolurk
p866
aVTyphlosion
p867
aVCarracosta
p868
aVGolbat
p869
aVVirizion
p870
aVRotom-Frost
p871
aVHuntail
p872
aVAudino
p873
aVAudino-Mega
p874
aVCherubi
p875
aVSealeo
p876
aVDrowzee
p877
aVPelipper
p878
aVPalkia
p879
aVRaichu
p880
aVAurorus
p881
aVIvysaur
p882
aVWooper
p883
aVVenonat
p884
aVArceus-*
p885
aVMachoke
p886
aVCharmeleon
p887
aVDiglett
p888
aVCarvanha
p889
aVGogoat
p890
aVRapidash
p891
aVZweilous
p892
aVJumpluff
p893
aVMr. Mime
p894
aVSimipour
p895
aVGengar-Mega
p896
aVSwellow
p897
aVUrsaring
p898
aVSteelix
p899
aVGlalie
p900
aVGlalie-Mega
p901
aVSudowoodo
p902
aVDustox
p903
aVGrumpig
p904
aVPurugly
p905
aVPersian
p906
aVLiepard
p907
aVVictreebel
p908
aVCarbink
p909
aVRaticate
p910
aVRhydon
p911
aVGlaceon
p912
aVMarowak
p913
aVShaymin-Sky
p914
aVDedenne
p915
aVParasect
p916
aVDeoxys
p917
aVMightyena
p918
aVRotom
p919
aVWalrein
p920
aVMetang
p921
aVSeaking
p922
aVDrifblim
p923
aVQuilladin
p924
aVGabite
p925
aVMurkrow
p926
aVRoselia
p927
aVCryogonal
p928
aVHippopotas
p929
aVMonferno
p930
aVRelicanth
p931
aVChatot
p932
aVHo-Oh
p933
aVYveltal
p934
aVLugia
p935
aVGroudon
p936
aVGroudon-Primal
p937
aVGarbodor
p938
aVScyther
p939
aVTaillow
p940
aVWingull
p941
aVMakuhita
p942
aVNuzleaf
p943
aVTorchic
p944
aVWhismur
p945
aVZigzagoon
p946
aVMudkip
p947
aVQwilfish
p948
aVLickilicky
p949
aVWartortle
p950
aVSneasel
p951
aVSkuntank
p952
aVDunsparce
p953
aVSawsbuck
p954
aVArbok
p955
aVHitmonchan
p956
aVSolosis
p957
aVCleffa
p958
aVBaltoy
p959
aVMeowstic-F
p960
aVVolbeat
p961
aVMaractus
p962
aVSwalot
p963
aVBeautifly
p964
aVDewgong
p965
aVTogetic
p966
aVSandslash
p967
aVBastiodon
p968
aVLombre
p969
aVGenesect-*
p970
aVSteelix-Mega
p971
aVMisdreavus
p972
aVSawk
p973
aVTangela
p974
aVShinx
p975
aVChimecho
p976
aVLarvesta
p977
aVFarfetch'd
p978
aVMasquerain
p979
aVMeganium
p980
aVPyroar
p981
aVClawitzer
p982
aVFerroseed
p983
aVSimisear
p984
aVHeatmor
p985
aVWhiscash
p986
aVOnix
p987
aVStaryu
p988
aVDoduo
p989
aVAbra
p990
aVShellder
p991
aVElekid
p992
aVStantler
p993
aVSunflora
p994
aVTorkoal
p995
aVGothorita
p996
aVZebstrika
p997
aVSwanna
p998
aVShelgon
p999
aVUnfezant
p1000
aVHypno
p1001
aVNosepass
p1002
aVSamurott
p1003
aVCrustle
p1004
aVClefairy
p1005
aVGolduck
p1006
aVButterfree
p1007
aVMismagius
p1008
aVBasculin
p1009
aVMuk
p1010
aVHaunter
p1011
aVJynx
p1012
aVLeavanny
p1013
aVKlang
p1014
aVKadabra
p1015
aVKecleon
p1016
aVBidoof
p1017
aVSilcoon
p1018
aVLedian
p1019
aVFraxure
p1020
aVCacnea
p1021
aVSkrelp
p1022
aVGraveler
p1023
aVMime Jr.
p1024
aVRattata
p1025
aVMantyke
p1026
aVFlabebe
p1027
aVNoibat
p1028
aVMeditite
p1029
aVWigglytuff
p1030
aVXerneas
p1031
aVEelektrik
p1032
aVGoldeen
p1033
aVMagmar
p1034
aVMankey
p1035
aVOmanyte
p1036
aVWeedle
p1037
aVMusharna
p1038
aVKingler
p1039
aVVanilluxe
p1040
aVFloette-Eternal-Flower
p1041
aVVigoroth
p1042
aVKabuto
p1043
aVSurskit
p1044
aVPignite
p1045
aVFearow
p1046
aVShroomish
p1047
aVThroh
p1048
aVTentacool
p1049
aVMienfoo
p1050
aVOshawott
p1051
aVFeebas
p1052
aVGoomy
p1053
aVSolrock
p1054
aVSpheal
p1055
aVPidove
p1056
aVPanpour
p1057
aVNatu
p1058
aVServine
p1059
aVFroakie
p1060
aVSeedot
p1061
aVTranquill
p1062
aVGloom
p1063
aVBuneary
p1064
aVGirafarig
p1065
aVIllumise
p1066
aVBergmite
p1067
aVChingling
p1068
aVSeel
p1069
aVBellsprout
p1070
aVEevee
p1071
aVSlakoth
p1072
aVYamask
p1073
aVNumel
p1074
aVDelcatty
p1075
aVKrokorok
p1076
aVWynaut
p1077
aVFlaaffy
p1078
aVFrogadier
p1079
aVMeowth
p1080
aVGrotle
p1081
aVCroconaw
p1082
aVAipom
p1083
aVSkiddo
p1084
aVWailmer
p1085
aVHappiny
p1086
aVTrubbish
p1087
aVGurdurr
p1088
aVSpinda
p1089
aVBibarel
p1090
aVCombusken
p1091
aVMarill
p1092
aVWatchog
p1093
aVSpewpa
p1094
aVMagcargo
p1095
aVBarboach
p1096
aVWormadam-Trash
p1097
aVCombee
p1098
aVHoothoot
p1099
aVEmolga
p1100
aVGothita
p1101
aVShelmet
p1102
aVMarshtomp
p1103
aVLileep
p1104
aVGulpin
p1105
aVSeviper
p1106
aVBudew
p1107
aVLunatone
p1108
aVJigglypuff
p1109
aVTimburr
p1110
aVSwirlix
p1111
aVIgglybuff
p1112
aVClauncher
p1113
aVTropius
p1114
aVOddish
p1115
aVPrinplup
p1116
aVChinchou
p1117
aVSpritzee
p1118
aVEkans
p1119
aVKlink
p1120
aVLarvitar
p1121
aVMunchlax
p1122
aVVulpix
p1123
aVNidorino
p1124
aVSnorunt
p1125
aVStaravia
p1126
aVCyndaquil
p1127
aVSmoochum
p1128
aVBulbasaur
p1129
aVCharmander
p1130
aVShieldon
p1131
aVCarnivine
p1132
aVMetapod
p1133
aVZekrom
p1134
aVSewaddle
p1135
aVKoffing
p1136
aVSpinarak
p1137
aVFloette-Eternal
p1138
aVPlusle
p1139
aVAriados
p1140
aVDelibird
p1141
aVDeoxys-Attack
p1142
aVFurret
p1143
aVDarkrai
p1144
aVKeldeo-Resolution
p1145
aVLucario-Mega
p1146
aVGourgeist-Super
p1147
aVPurrloin
p1148
aVMagikarp
p1149
aVStarly
p1150
aVTreecko
p1151
aVArchen
p1152
aVOctillery
p1153
aVPineco
p1154
aVPikachu-Libre
p1155
aVTurtwig
p1156
aVTeddiursa
p1157
aVSandshrew
p1158
aVPiplup
p1159
aVSunkern
p1160
aVDuskull
p1161
aVLairon
p1162
aVGolett
p1163
aVCastform
p1164
aVReshiram
p1165
aVMewtwo-Mega-Y
p1166
aVRayquaza-Mega
p1167
aVLampent
p1168
aVDeerling
p1169
aVMagnemite
p1170
aVShellos
p1171
aVLitleo
p1172
aVScraggy
p1173
aVCascoon
p1174
aVBeldum
p1175
aVHelioptile
p1176
aVPawniard
p1177
aVGastly
p1178
aVTepig
p1179
aVGrovyle
p1180
aVTotodile
p1181
aVRemoraid
p1182
aVSliggoo
p1183
aVChespin
p1184
aVPsyduck
p1185
aVBeartic
p1186
aVSnover
p1187
aVPidgey
p1188
aVSwadloon
p1189
aVRayquaza
p1190
aVPichu
p1191
aVAxew
p1192
aVDrilbur
p1193
aVLuvdisc
p1194
aVCherrim
p1195
aVBuizel
p1196
aVGrowlithe
p1197
aVPikachu-Belle
p1198
aVSquirtle
p1199
aVRalts
p1200
aVPancham
p1201
aVSkitty
p1202
aVKakuna
p1203
aVElgyem
p1204
aVGrimer
p1205
aVSpearow
p1206
aVPoliwhirl
p1207
aVSnubbull
p1208
aVFoongus
p1209
aVKrabby
p1210
aVDialga
p1211
aVGiratina
p1212
aVGourgeist
p1213
aVVibrava
p1214
aVKyogre
p1215
aVWeepinbell
p1216
aVZorua
p1217
aVLotad
p1218
aVLumineon
p1219
aVKricketune
p1220
aVVespiquen
p1221
aVTrapinch
p1222
aVDuosion
p1223
aVCaterpie
p1224
aVSlowpoke
p1225
aVPonyta
p1226
aVDrifloon
p1227
aVPumpkaboo-*
p1228
aVStunky
p1229
aVTirtouga
p1230
aVHoundour
p1231
aVAzurill
p1232
aVNidorina
p1233
aVRiolu
p1234
aVLuxio
p1235
aVBlitzle
p1236
aVVanillish
p1237
aVKyurem-White
p1238
aVGourgeist-Small
p1239
aVMewtwo
p1240
aVGeodude
p1241
aVFidgit
p1242
aVSyclant
p1243
aVStratagem
p1244
aVVolkraken
p1245
aVKitsunoh
p1246
aVPlasmanta
p1247
aVPyroak
p1248
aVCyclohm
p1249
aVColossoil
p1250
aVPorygon
p1251
aVBonsly
p1252
aVPoliwag
p1253
aVKyogre-Primal
p1254
aVWhirlipede
p1255
aVMagby
p1256
aVPupitar
p1257
aVFletchling
p1258
aVHonedge
p1259
aVBunnelby
p1260
aVPikachu-Rock-Star
p1261
aVDucklett
p1262
aVNincada
p1263
aVFrillish
p1264
aVDarumaka
p1265
aVHerdier
p1266
aVMachop
p1267
aVWurmple
p1268
aVTympole
p1269
aVFinneon
p1270
aVQuilava
p1271
aVMinccino
p1272
aVBasculin-Blue-Striped
p1273
aVUnown
p1274
aVSnivy
p1275
aVBlaziken-Mega
p1276
aVZubat
p1277
aVLoudred
p1278
aVMewtwo-Mega-X
p1279
aVCroagunk
p1280
aVCorphish
p1281
aVCranidos
p1282
aVDwebble
p1283
aVBronzor
p1284
aVAmaura
p1285
aVBoldore
p1286
aVKricketot
p1287
aVExeggcute
p1288
aVBagon
p1289
asS'poke_index'
p1290
I742
sS'poke_forward_mapping'
p1291
(dp1292
g730
I182
sg1149
I601
sg1064
I516
sg1223
I675
sg969
I421
sg897
I349
sg1071
I523
sg693
I145
sg1100
I552
sg1007
I459
sg555
I7
sg794
I246
sg785
I237
sg974
I426
sg1079
I531
sg781
I233
sg1118
I570
sg1232
I684
sg791
I243
sg1250
I702
sg1286
I738
sg1170
I622
sg675
I127
sg672
I124
sg958
I410
sg576
I28
sg793
I245
sg1284
I736
sg676
I128
sg1035
I487
sg636
I88
sg996
I448
sg708
I160
sg910
I362
sg1208
I660
sg743
I195
sg1185
I637
sg1015
I467
sg784
I236
sg566
I18
sg1072
I524
sg632
I84
sg633
I85
sg796
I248
sg1022
I474
sg1217
I669
sg1019
I471
sg920
I372
sg1065
I517
sg836
I288
sg673
I125
sg733
I185
sg1111
I563
sg872
I324
sg778
I230
sg697
I149
sg1283
I735
sg925
I377
sg989
I441
sg919
I371
sg1242
I694
sg652
I104
sg713
I165
sg998
I450
sg789
I241
sg952
I404
sg1090
I542
sg1221
I673
sg680
I132
sg1196
I648
sg640
I92
sg826
I278
sg1255
I707
sg1152
I604
sg563
I15
sg639
I91
sg1024
I476
sg1014
I466
sg1182
I634
sg674
I126
sg709
I161
sg972
I424
sg1181
I633
sg1038
I490
sg962
I414
sg1244
I696
sg1130
I582
sg619
I71
sg997
I449
sg706
I158
sg883
I335
sg942
I394
sg615
I67
sg663
I115
sg1195
I647
sg1069
I521
sg1120
I572
sg909
I361
sg759
I211
sg1237
I689
sg723
I175
sg830
I282
sg892
I344
sg776
I228
sg1083
I535
sg638
I90
sg877
I329
sg1033
I485
sg658
I110
sg863
I315
sg1207
I659
sg1253
I705
sg995
I447
sg1279
I731
sg1166
I618
sg921
I373
sg908
I360
sg1084
I536
sg978
I430
sg1124
I576
sg895
I347
sg802
I254
sg594
I46
sg949
I401
sg1216
I668
sg960
I412
sg1155
I607
sg848
I300
sg668
I120
sg761
I213
sg1000
I452
sg1239
I691
sg840
I292
sg815
I267
sg1213
I665
sg977
I429
sg1054
I506
sg798
I250
sg1013
I465
sg809
I261
sg876
I328
sg722
I174
sg864
I316
sg1153
I605
sg592
I44
sg884
I336
sg1151
I603
sg762
I214
sg699
I151
sg1012
I464
sg705
I157
sg1173
I625
sg956
I408
sg1074
I526
sg1260
I712
sg587
I39
sg875
I327
sg948
I400
sg914
I366
sg575
I27
sg687
I139
sg768
I220
sg902
I354
sg557
I9
sg959
I411
sg613
I65
sg1115
I567
sg740
I192
sg1105
I557
sg580
I32
sg900
I352
sg818
I270
sg603
I55
sg560
I12
sg941
I393
sg868
I320
sg1032
I484
sg660
I112
sg988
I440
sg853
I305
sg860
I312
sg832
I284
sg907
I359
sg1056
I508
sg588
I40
sg838
I290
sg1114
I566
sg780
I232
sg591
I43
sg1150
I602
sg570
I22
sg1036
I488
sg649
I101
sg1225
I677
sg805
I257
sg589
I41
sg1096
I548
sg916
I368
sg731
I183
sg1107
I559
sg682
I134
sg839
I291
sg947
I399
sg1026
I478
sg572
I24
sg738
I190
sg567
I19
sg1273
I725
sg834
I286
sg760
I212
sg779
I231
sg936
I388
sg806
I258
sg724
I176
sg564
I16
sg1218
I670
sg571
I23
sg651
I103
sg625
I77
sg1235
I687
sg1133
I585
sg1198
I650
sg635
I87
sg885
I337
sg1179
I631
sg683
I135
sg1281
I733
sg843
I295
sg678
I130
sg1092
I544
sg1159
I611
sg1129
I581
sg1109
I561
sg1174
I626
sg990
I442
sg896
I348
sg1200
I652
sg1010
I462
sg901
I353
sg1044
I496
sg1048
I500
sg950
I402
sg983
I435
sg1045
I497
sg1093
I545
sg1061
I513
sg1287
I739
sg1177
I629
sg694
I146
sg1117
I569
sg940
I392
sg1025
I477
sg1009
I461
sg734
I186
sg711
I163
sg719
I171
sg1123
I575
sg647
I99
sg1011
I463
sg1070
I522
sg899
I351
sg915
I367
sg1002
I454
sg695
I147
sg1206
I658
sg939
I391
sg749
I201
sg861
I313
sg966
I418
sg1138
I590
sg1135
I587
sg1042
I494
sg1067
I519
sg614
I66
sg1098
I550
sg979
I431
sg1194
I646
sg626
I78
sg1192
I644
sg1089
I541
sg1055
I507
sg605
I57
sg1226
I678
sg1085
I537
sg1271
I723
sg859
I311
sg855
I307
sg882
I334
sg654
I106
sg1095
I547
sg986
I438
sg987
I439
sg637
I89
sg903
I355
sg628
I80
sg641
I93
sg1175
I627
sg585
I37
sg1158
I610
sg727
I179
sg1047
I499
sg862
I314
sg681
I133
sg788
I240
sg618
I70
sg1059
I511
sg655
I107
sg608
I60
sg871
I323
sg869
I321
sg659
I111
sg811
I263
sg976
I428
sg981
I433
sg1236
I688
sg889
I341
sg1219
I671
sg1211
I663
sg1248
I700
sg1204
I656
sg1191
I643
sg752
I204
sg1285
I737
sg1004
I456
sg616
I68
sg1101
I553
sg1256
I708
sg1143
I595
sg833
I285
sg766
I218
sg595
I47
sg1066
I518
sg829
I281
sg728
I180
sg803
I255
sg622
I74
sg808
I260
sg666
I118
sg577
I29
sg1203
I655
sg922
I374
sg744
I196
sg982
I434
sg1127
I579
sg630
I82
sg858
I310
sg1126
I578
sg689
I141
sg1116
I568
sg800
I252
sg953
I405
sg926
I378
sg1005
I457
sg1094
I546
sg825
I277
sg1140
I592
sg1209
I661
sg558
I10
sg620
I72
sg742
I194
sg847
I299
sg994
I446
sg1018
I470
sg804
I256
sg650
I102
sg598
I50
sg764
I216
sg751
I203
sg1278
I730
sg1264
I716
sg795
I247
sg905
I357
sg747
I199
sg670
I122
sg593
I45
sg923
I375
sg814
I266
sg865
I317
sg1068
I520
sg1168
I620
sg816
I268
sg880
I332
sg970
I422
sg729
I181
sg1262
I714
sg842
I294
sg1008
I460
sg911
I363
sg985
I437
sg812
I264
sg644
I96
sg748
I200
sg556
I8
sg1160
I612
sg755
I207
sg643
I95
sg688
I140
sg1136
I588
sg1139
I591
sg991
I443
sg756
I208
sg599
I51
sg881
I333
sg774
I226
sg1154
I606
sg1163
I615
sg685
I137
sg1171
I623
sg1276
I728
sg1252
I704
sg835
I287
sg1103
I555
sg773
I225
sg929
I381
sg1112
I564
sg696
I148
sg746
I198
sg967
I419
sg600
I52
sg927
I379
sg662
I114
sg671
I123
sg590
I42
sg783
I235
sg879
I331
sg745
I197
sg690
I142
sg1148
I600
sg850
I302
sg999
I451
sg664
I116
sg1099
I551
sg955
I407
sg1230
I682
sg782
I234
sg1199
I651
sg686
I138
sg707
I159
sg1087
I539
sg569
I21
sg1113
I565
sg597
I49
sg1241
I693
sg578
I30
sg712
I164
sg1028
I480
sg1280
I732
sg737
I189
sg790
I242
sg931
I383
sg954
I406
sg1270
I722
sg1269
I721
sg561
I13
sg715
I167
sg797
I249
sg1081
I533
sg1006
I458
sg607
I59
sg667
I119
sg849
I301
sg1119
I571
sg657
I109
sg1078
I530
sg568
I20
sg583
I35
sg721
I173
sg677
I129
sg777
I229
sg1249
I701
sg1057
I509
sg787
I239
sg621
I73
sg1104
I556
sg551
I3
sg870
I322
sg888
I340
sg874
I326
sg1128
I580
sg735
I187
sg582
I34
sg648
I100
sg1178
I630
sg1157
I609
sg1001
I453
sg886
I338
sg1062
I514
sg873
I325
sg893
I345
sg1227
I679
sg851
I303
sg1245
I697
sg792
I244
sg559
I11
sg957
I409
sg1088
I540
sg1110
I562
sg973
I425
sg1003
I455
sg1247
I699
sg1229
I681
sg653
I105
sg1184
I636
sg1201
I653
sg937
I389
sg1238
I690
sg548
I0
sg1106
I558
sg549
I1
sg867
I319
sg602
I54
sg1272
I724
sg866
I318
sg574
I26
sg1063
I515
sg968
I420
sg586
I38
sg906
I358
sg698
I150
sg701
I153
sg757
I209
sg684
I136
sg1263
I715
sg1145
I597
sg904
I356
sg822
I274
sg813
I265
sg596
I48
sg1043
I495
sg1228
I680
sg1156
I608
sg932
I384
sg1020
I472
sg993
I445
sg1141
I593
sg1176
I628
sg562
I14
sg1222
I674
sg1165
I617
sg807
I259
sg601
I53
sg828
I280
sg1180
I632
sg704
I156
sg769
I221
sg1259
I711
sg1187
I639
sg890
I342
sg732
I184
sg854
I306
sg1183
I635
sg736
I188
sg786
I238
sg946
I398
sg935
I387
sg770
I222
sg975
I427
sg1205
I657
sg1289
I741
sg617
I69
sg1258
I710
sg718
I170
sg565
I17
sg1053
I505
sg961
I413
sg1274
I726
sg771
I223
sg775
I227
sg1075
I527
sg1267
I719
sg918
I370
sg1224
I676
sg1197
I649
sg1060
I512
sg1077
I529
sg1215
I667
sg1190
I642
sg824
I276
sg656
I108
sg725
I177
sg609
I61
sg1202
I654
sg799
I251
sg1134
I586
sg1268
I720
sg1052
I504
sg1049
I501
sg845
I297
sg852
I304
sg1142
I594
sg703
I155
sg610
I62
sg1034
I486
sg1040
I492
sg669
I121
sg758
I210
sg856
I308
sg887
I339
sg661
I113
sg1189
I641
sg741
I193
sg624
I76
sg1121
I573
sg844
I296
sg581
I33
sg1246
I698
sg917
I369
sg820
I272
sg1051
I503
sg700
I152
sg1212
I664
sg1186
I638
sg665
I117
sg1193
I645
sg627
I79
sg1214
I666
sg604
I56
sg739
I191
sg1073
I525
sg938
I390
sg913
I365
sg912
I364
sg1172
I624
sg971
I423
sg1082
I534
sg1023
I475
sg1086
I538
sg1144
I596
sg553
I5
sg1188
I640
sg611
I63
sg753
I205
sg646
I98
sg1031
I483
sg1265
I717
sg634
I86
sg573
I25
sg623
I75
sg817
I269
sg924
I376
sg1125
I577
sg964
I416
sg1080
I532
sg692
I144
sg1266
I718
sg878
I330
sg765
I217
sg552
I4
sg963
I415
sg579
I31
sg1261
I713
sg980
I432
sg930
I382
sg894
I346
sg629
I81
sg823
I275
sg631
I83
sg934
I386
sg1277
I729
sg1131
I583
sg1050
I502
sg584
I36
sg1102
I554
sg819
I271
sg898
I350
sg1169
I621
sg750
I202
sg1243
I695
sg642
I94
sg801
I253
sg612
I64
sg984
I436
sg1076
I528
sg763
I215
sg1240
I692
sg1251
I703
sg1234
I686
sg1091
I543
sg857
I309
sg1164
I616
sg846
I298
sg702
I154
sg1231
I683
sg1039
I491
sg1288
I740
sg1254
I706
sg1046
I498
sg1108
I560
sg679
I131
sg716
I168
sg891
I343
sg1162
I614
sg933
I385
sg1210
I662
sg841
I293
sg645
I97
sg1147
I599
sg1097
I549
sg1167
I619
sg717
I169
sg1146
I598
sg945
I397
sg554
I6
sg767
I219
sg1058
I510
sg1132
I584
sg754
I206
sg606
I58
sg1017
I469
sg1122
I574
sg1257
I709
sg943
I395
sg1029
I481
sg1037
I489
sg1220
I672
sg714
I166
sg1275
I727
sg726
I178
sg1137
I589
sg821
I273
sg1021
I473
sg1233
I685
sg1282
I734
sg965
I417
sg1016
I468
sg1161
I613
sg831
I283
sg928
I380
sg827
I279
sg944
I396
sg691
I143
sg810
I262
sg720
I172
sg1030
I482
sg1041
I493
sg1027
I479
sg550
I2
sg992
I444
sg951
I403
sg772
I224
sg837
I289
sg710
I162
ssS'move_forward_mapping'
p1293
(dp1294
g262
I254
sg327
I319
sg276
I268
sg58
I50
sg266
I258
sg23
I15
sg502
I494
sg27
I19
sg488
I480
sg30
I22
sg81
I73
sg440
I432
sg17
I9
sg90
I82
sg431
I423
sg142
I134
sg128
I120
sg373
I365
sg18
I10
sg145
I137
sg423
I415
sg268
I260
sg501
I493
sg319
I311
sg500
I492
sg191
I183
sg248
I240
sg135
I127
sg239
I231
sg124
I116
sg204
I196
sg422
I414
sg432
I424
sg62
I54
sg171
I163
sg45
I37
sg260
I252
sg224
I216
sg246
I238
sg301
I293
sg194
I186
sg28
I20
sg485
I477
sg305
I297
sg218
I210
sg496
I488
sg371
I363
sg345
I337
sg449
I441
sg384
I376
sg109
I101
sg35
I27
sg524
I516
sg425
I417
sg115
I107
sg506
I498
sg279
I271
sg311
I303
sg29
I21
sg168
I160
sg509
I501
sg315
I307
sg91
I83
sg232
I224
sg483
I475
sg377
I369
sg535
I527
sg495
I487
sg382
I374
sg48
I40
sg175
I167
sg236
I228
sg375
I367
sg322
I314
sg197
I189
sg274
I266
sg227
I219
sg494
I486
sg113
I105
sg499
I491
sg155
I147
sg174
I166
sg461
I453
sg277
I269
sg79
I71
sg287
I279
sg67
I59
sg296
I288
sg539
I531
sg89
I81
sg31
I23
sg413
I405
sg34
I26
sg93
I85
sg291
I283
sg234
I226
sg82
I74
sg76
I68
sg477
I469
sg335
I327
sg290
I282
sg376
I368
sg372
I364
sg503
I495
sg474
I466
sg331
I323
sg323
I315
sg72
I64
sg75
I67
sg222
I214
sg532
I524
sg217
I209
sg529
I521
sg492
I484
sg433
I425
sg288
I280
sg286
I278
sg211
I203
sg170
I162
sg210
I202
sg407
I399
sg436
I428
sg520
I512
sg169
I161
sg455
I447
sg139
I131
sg508
I500
sg308
I300
sg148
I140
sg387
I379
sg482
I474
sg475
I467
sg255
I247
sg442
I434
sg518
I510
sg157
I149
sg340
I332
sg451
I443
sg412
I404
sg147
I139
sg411
I403
sg176
I168
sg70
I62
sg216
I208
sg538
I530
sg146
I138
sg406
I398
sg164
I156
sg163
I155
sg480
I472
sg526
I518
sg107
I99
sg36
I28
sg178
I170
sg408
I400
sg101
I93
sg254
I246
sg105
I97
sg381
I373
sg405
I397
sg244
I236
sg190
I182
sg252
I244
sg420
I412
sg122
I114
sg66
I58
sg96
I88
sg522
I514
sg321
I313
sg351
I343
sg519
I511
sg69
I61
sg318
I310
sg350
I342
sg299
I291
sg20
I12
sg196
I188
sg443
I435
sg51
I43
sg463
I455
sg317
I309
sg389
I381
sg192
I184
sg127
I119
sg201
I193
sg324
I316
sg470
I462
sg13
I5
sg80
I72
sg347
I339
sg402
I394
sg527
I519
sg249
I241
sg111
I103
sg521
I513
sg294
I286
sg230
I222
sg173
I165
sg54
I46
sg212
I204
sg74
I66
sg44
I36
sg219
I211
sg25
I17
sg47
I39
sg293
I285
sg325
I317
sg63
I55
sg99
I91
sg454
I446
sg53
I45
sg303
I295
sg361
I353
sg469
I461
sg19
I11
sg438
I430
sg523
I515
sg356
I348
sg159
I151
sg386
I378
sg396
I388
sg295
I287
sg531
I523
sg378
I370
sg416
I408
sg61
I53
sg484
I476
sg297
I289
sg512
I504
sg459
I451
sg348
I340
sg437
I429
sg447
I439
sg181
I173
sg160
I152
sg453
I445
sg302
I294
sg283
I275
sg125
I117
sg403
I395
sg264
I256
sg198
I190
sg187
I179
sg479
I471
sg253
I245
sg401
I393
sg343
I335
sg466
I458
sg46
I38
sg339
I331
sg43
I35
sg114
I106
sg12
I4
sg32
I24
sg419
I411
sg428
I420
sg385
I377
sg130
I122
sg126
I118
sg533
I525
sg117
I109
sg472
I464
sg225
I217
sg233
I225
sg37
I29
sg240
I232
sg71
I63
sg458
I450
sg397
I389
sg40
I32
sg144
I136
sg379
I371
sg73
I65
sg326
I318
sg298
I290
sg490
I482
sg129
I121
sg543
I536
sg106
I98
sg363
I355
sg231
I223
sg265
I257
sg257
I249
sg342
I334
sg86
I78
sg514
I506
sg349
I341
sg457
I449
sg21
I13
sg464
I456
sg214
I206
sg380
I372
sg120
I112
sg366
I358
sg510
I502
sg64
I56
sg85
I77
sg528
I520
sg320
I312
sg182
I174
sg65
I57
sg189
I181
sg199
I191
sg481
I473
sg60
I52
sg515
I507
sg333
I325
sg241
I233
sg26
I18
sg50
I42
sg84
I76
sg167
I159
sg513
I505
sg39
I31
sg137
I129
sg313
I305
sg497
I489
sg448
I440
sg177
I169
sg434
I426
sg487
I479
sg341
I333
sg138
I130
sg235
I227
sg399
I391
sg504
I496
sVS
I533
sg369
I361
sg136
I128
sg98
I90
sg410
I402
sg505
I497
sg166
I158
sg156
I148
sg312
I304
sg344
I336
sg355
I347
sg467
I459
sg272
I264
sg154
I146
sg83
I75
sg511
I503
sg112
I104
sg507
I499
sg228
I220
sg395
I387
sg417
I409
sg374
I366
sg445
I437
sg123
I115
sg393
I385
sg498
I490
sg209
I201
sg364
I356
sg41
I33
sg119
I111
sg238
I230
sg473
I465
sg207
I199
sg104
I96
sg525
I517
sg285
I277
sg52
I44
sg352
I344
sg353
I345
sg306
I298
sg418
I410
sg544
I537
sg22
I14
sg149
I141
sg185
I177
sg226
I218
sg121
I113
sg309
I301
sg195
I187
sg478
I470
sg280
I272
sg424
I416
sg110
I102
sg273
I265
sg24
I16
sg489
I481
sg38
I30
sg158
I150
sg202
I194
sg68
I60
sg200
I192
sg439
I431
sg444
I436
sg460
I452
sg390
I382
sg131
I123
sg394
I386
sg221
I213
sg153
I145
sg77
I69
sg140
I132
sg271
I263
sg491
I483
sg56
I48
sg55
I47
sg42
I34
sg391
I383
sg208
I200
sg100
I92
sg223
I215
sg188
I180
sg186
I178
sg133
I125
sg334
I326
sg427
I419
sg516
I508
sg281
I273
sg534
I526
sg150
I142
sg493
I485
sg78
I70
sg118
I110
sg392
I384
sg256
I248
sg203
I195
sg275
I267
sg258
I250
sg263
I255
sg541
I534
sg435
I427
sg415
I407
sg161
I153
sg452
I444
sg336
I328
sg383
I375
sg49
I41
sg250
I242
sg220
I212
sg446
I438
sg542
I535
sg261
I253
sg132
I124
sg57
I49
sg409
I401
sg400
I392
sg11
I3
sg143
I135
sg536
I528
sg329
I321
sg94
I86
sg172
I164
sg134
I126
sg88
I80
sg307
I299
sg165
I157
sg441
I433
sg108
I100
sg476
I468
sg365
I357
sg429
I421
sg59
I51
sg330
I322
sg486
I478
sg346
I338
sg152
I144
sg316
I308
sg338
I330
sg180
I172
sg292
I284
sg15
I7
sg357
I349
sg367
I359
sg310
I302
sg300
I292
sg179
I171
sg332
I324
sg10
I2
sg314
I306
sg362
I354
sg8
I0
sg237
I229
sg282
I274
sg243
I235
sg462
I454
sg103
I95
sg540
I532
sg247
I239
sg16
I8
sg251
I243
sg354
I346
sg404
I396
sg337
I329
sg259
I251
sg289
I281
sg414
I406
sg184
I176
sg116
I108
sg284
I276
sg398
I390
sg162
I154
sg278
I270
sg359
I351
sg471
I463
sg193
I185
sg368
I360
sg530
I522
sg141
I133
sg360
I352
sg388
I380
sg14
I6
sg95
I87
sg102
I94
sg421
I413
sg468
I460
sg267
I259
sg426
I418
sg151
I143
sg270
I262
sg215
I207
sg370
I362
sg517
I509
sg328
I320
sg206
I198
sg213
I205
sg242
I234
sg33
I25
sg430
I422
sg9
I1
sg537
I529
sg205
I197
sg97
I89
sg465
I457
sg183
I175
sg358
I350
sg245
I237
sg229
I221
sg456
I448
sg304
I296
sg269
I261
sg87
I79
sg92
I84
sg450
I442
ssb.